target datalayout = "e-m:e-p270:32:32-p271:32:32-p272:64:64-i64:64-i128:128-f80:128-n8:16:32:64-S128"
target triple = "x86_64-pc-linux-gnu"

%struct.H5PB_t = type { i64, i64, i32, i32, i32, i32, i32, i32, ptr, ptr, i64, ptr, ptr, ptr, [2 x i32], [2 x i32], [2 x i32], [2 x i32], [2 x i32] }
%struct.H5F_shared_t = type { ptr, ptr, ptr, i8, i32, i32, %struct.H5F_mtab_t, ptr, i8, i8, i64, i32, i32, i64, i64, ptr, ptr, %struct.H5AC_cache_config_t, %struct.H5AC_cache_image_config_t, i8, i8, ptr, i64, i32, i8, i64, i64, double, i64, i64, i64, i32, i32, i32, i8, i32, ptr, ptr, ptr, ptr, i8, i8, i8, i64, ptr, ptr, i32, i64, i8, i32, i8, i64, i8, [13 x i32], [13 x i64], [13 x ptr], i8, i64, i64, [7 x i32], [7 x i32], %struct.H5F_blk_aggr_t, %struct.H5F_blk_aggr_t, i64, i64, %struct.H5F_meta_accum_t, i32, i32, [30 x ptr], %struct.H5F_object_flush_t, i8, ptr }
%struct.H5F_mtab_t = type { i32, i32, ptr }
%struct.H5AC_cache_config_t = type { i32, i8, i8, i8, [1025 x i8], i8, i8, i64, double, i64, i64, i64, i32, double, double, i8, i64, i32, double, double, i32, double, double, i8, i64, i32, i8, double, i64, i32 }
%struct.H5AC_cache_image_config_t = type { i32, i8, i8, i32 }
%struct.H5F_blk_aggr_t = type { i64, i64, i64, i64, i64 }
%struct.H5F_meta_accum_t = type { ptr, i64, i64, i64, i64, i64, i8 }
%struct.H5F_object_flush_t = type { ptr, ptr }
%struct.H5PB_ud1_t = type { ptr, i8 }

@H5PB_init_g = global i8 0, align 1
@H5_libterm_g = external global i8, align 1
@.str.10 = private unnamed_addr constant [98 x i8] c"generated/home/dtcxzyw/WorkSpace/Projects/compilers/llvm-opt-benchmark/bench/hdf5/hdf5/src/H5PB.c\00", align 1
@H5E_PAGEBUF_g = external global i64, align 8
@__func__.H5PB_flush = private unnamed_addr constant [11 x i8] c"H5PB_flush\00", align 1
@H5E_BADITER_g = external global i64, align 8
@.str.16 = private unnamed_addr constant [34 x i8] c"can't flush page buffer skip list\00", align 1
@__func__.H5PB_dest = private unnamed_addr constant [10 x i8] c"H5PB_dest\00", align 1
@H5E_CANTFLUSH_g = external global i64, align 8
@.str.17 = private unnamed_addr constant [24 x i8] c"can't flush page buffer\00", align 1
@H5E_CANTCLOSEOBJ_g = external global i64, align 8
@.str.18 = private unnamed_addr constant [36 x i8] c"can't destroy page buffer skip list\00", align 1
@H5E_CANTRELEASE_g = external global i64, align 8
@.str.19 = private unnamed_addr constant [39 x i8] c"can't destroy page buffer page factory\00", align 1
@H5_H5PB_t_reg_free_list = internal global { i8, [3 x i8], i32, i32, [4 x i8], ptr, i64, ptr } { i8 0, [3 x i8] zeroinitializer, i32 0, i32 0, [4 x i8] zeroinitializer, ptr @.str.33, i64 128, ptr null }, align 8

; Function Attrs: nounwind uwtable
define i32 @H5PB_flush(ptr noundef %0) #0 {
  %2 = alloca i32, align 4
  %3 = alloca ptr, align 8
  %4 = alloca i32, align 4
  %5 = alloca i8, align 1
  %6 = alloca ptr, align 8
  %7 = alloca i32, align 4
  store ptr %0, ptr %3, align 8, !tbaa !16
  call void @llvm.lifetime.start.p0(i64 4, ptr %4) #6
  store i32 0, ptr %4, align 4, !tbaa !12
  call void @llvm.lifetime.start.p0(i64 1, ptr %5) #6
  store i8 0, ptr %5, align 1, !tbaa !8
  %8 = load i8, ptr @H5PB_init_g, align 1, !tbaa !8, !range !10, !noundef !11
  %9 = trunc i8 %8 to i1
  br i1 %9, label %14, label %10

10:                                               ; preds = %1
  %11 = load i8, ptr @H5_libterm_g, align 1, !tbaa !8, !range !10, !noundef !11
  %12 = trunc i8 %11 to i1
  %13 = xor i1 %12, true
  br label %14

14:                                               ; preds = %10, %1
  %15 = phi i1 [ false, %1 ], [ %13, %10 ]
  %16 = xor i1 %15, true
  %17 = xor i1 %16, true
  %18 = zext i1 %17 to i32
  %19 = sext i32 %18 to i64
  %20 = call i64 @llvm.expect.i64(i64 %19, i64 0)
  %21 = icmp ne i64 %20, 0
  br i1 %21, label %22, label %23

22:                                               ; preds = %14
  store i8 1, ptr @H5PB_init_g, align 1, !tbaa !8
  br label %23

23:                                               ; preds = %22, %14
  %24 = load i8, ptr @H5PB_init_g, align 1, !tbaa !8, !range !10, !noundef !11
  %25 = trunc i8 %24 to i1
  br i1 %25, label %30, label %26

26:                                               ; preds = %23
  %27 = load i8, ptr @H5_libterm_g, align 1, !tbaa !8, !range !10, !noundef !11
  %28 = trunc i8 %27 to i1
  %29 = xor i1 %28, true
  br label %30

30:                                               ; preds = %26, %23
  %31 = phi i1 [ true, %23 ], [ %29, %26 ]
  %32 = xor i1 %31, true
  %33 = xor i1 %32, true
  %34 = zext i1 %33 to i32
  %35 = sext i32 %34 to i64
  %36 = call i64 @llvm.expect.i64(i64 %35, i64 1)
  %37 = icmp ne i64 %36, 0
  br i1 %37, label %38, label %83

38:                                               ; preds = %30
  %39 = load ptr, ptr %3, align 8, !tbaa !16
  %40 = getelementptr inbounds nuw %struct.H5F_shared_t, ptr %39, i32 0, i32 15
  %41 = load ptr, ptr %40, align 8, !tbaa !54
  %42 = icmp ne ptr %41, null
  br i1 %42, label %43, label %81

43:                                               ; preds = %38
  %44 = load ptr, ptr %3, align 8, !tbaa !16
  %45 = call i32 @H5F_shared_get_intent(ptr noundef %44)
  %46 = and i32 1, %45
  %47 = icmp ne i32 %46, 0
  br i1 %47, label %48, label %81

48:                                               ; preds = %43
  call void @llvm.lifetime.start.p0(i64 8, ptr %6) #6
  %49 = load ptr, ptr %3, align 8, !tbaa !16
  %50 = getelementptr inbounds nuw %struct.H5F_shared_t, ptr %49, i32 0, i32 15
  %51 = load ptr, ptr %50, align 8, !tbaa !54
  store ptr %51, ptr %6, align 8, !tbaa !3
  %52 = load ptr, ptr %6, align 8, !tbaa !3
  %53 = getelementptr inbounds nuw %struct.H5PB_t, ptr %52, i32 0, i32 8
  %54 = load ptr, ptr %53, align 8, !tbaa !51
  %55 = load ptr, ptr %3, align 8, !tbaa !16
  %56 = call i32 @H5SL_iterate(ptr noundef %54, ptr noundef @H5PB__flush_cb, ptr noundef %55)
  %57 = icmp ne i32 %56, 0
  br i1 %57, label %58, label %77

58:                                               ; preds = %48
  br label %59

59:                                               ; preds = %58
  br label %60

60:                                               ; preds = %59
  br label %61

61:                                               ; preds = %60
  %62 = load i64, ptr @H5E_PAGEBUF_g, align 8, !tbaa !18
  %63 = load i64, ptr @H5E_BADITER_g, align 8, !tbaa !18
  %64 = call i32 (ptr, ptr, i32, i64, i64, ptr, ...) @H5E_printf_stack(ptr noundef @.str.10, ptr noundef @__func__.H5PB_flush, i32 noundef 398, i64 noundef %62, i64 noundef %63, ptr noundef @.str.16)
  br label %65

65:                                               ; preds = %61
  br label %66

66:                                               ; preds = %65
  store i8 1, ptr %5, align 1, !tbaa !8
  %67 = load i8, ptr %5, align 1, !tbaa !8, !range !10, !noundef !11
  %68 = trunc i8 %67 to i1
  %69 = zext i1 %68 to i8
  store i8 %69, ptr %5, align 1, !tbaa !8
  br label %70

70:                                               ; preds = %66
  br label %71

71:                                               ; preds = %70
  br label %72

72:                                               ; preds = %71
  store i32 -1, ptr %4, align 4, !tbaa !12
  store i32 10, ptr %7, align 4
  br label %78

73:                                               ; No predecessors!
  br label %74

74:                                               ; preds = %73
  br label %75

75:                                               ; preds = %74
  br label %76

76:                                               ; preds = %75
  br label %77

77:                                               ; preds = %76, %48
  store i32 0, ptr %7, align 4
  br label %78

78:                                               ; preds = %72, %77
  call void @llvm.lifetime.end.p0(i64 8, ptr %6) #6
  %79 = load i32, ptr %7, align 4
  switch i32 %79, label %85 [
    i32 0, label %80
    i32 10, label %82
  ]

80:                                               ; preds = %78
  br label %81

81:                                               ; preds = %80, %43, %38
  br label %82

82:                                               ; preds = %81, %78
  br label %83

83:                                               ; preds = %82, %30
  %84 = load i32, ptr %4, align 4, !tbaa !12
  store i32 %84, ptr %2, align 4
  store i32 1, ptr %7, align 4
  br label %85

85:                                               ; preds = %83, %78
  call void @llvm.lifetime.end.p0(i64 1, ptr %5) #6
  call void @llvm.lifetime.end.p0(i64 4, ptr %4) #6
  %86 = load i32, ptr %2, align 4
  ret i32 %86
}

; Function Attrs: nounwind uwtable
define i32 @H5PB_dest(ptr noundef %0) #0 {
  %2 = alloca i32, align 4
  %3 = alloca ptr, align 8
  %4 = alloca i32, align 4
  %5 = alloca i8, align 1
  %6 = alloca ptr, align 8
  %7 = alloca %struct.H5PB_ud1_t, align 8
  %8 = alloca i32, align 4
  store ptr %0, ptr %3, align 8, !tbaa !16
  call void @llvm.lifetime.start.p0(i64 4, ptr %4) #6
  store i32 0, ptr %4, align 4, !tbaa !12
  call void @llvm.lifetime.start.p0(i64 1, ptr %5) #6
  store i8 0, ptr %5, align 1, !tbaa !8
  %9 = load i8, ptr @H5PB_init_g, align 1, !tbaa !8, !range !10, !noundef !11
  %10 = trunc i8 %9 to i1
  br i1 %10, label %15, label %11

11:                                               ; preds = %1
  %12 = load i8, ptr @H5_libterm_g, align 1, !tbaa !8, !range !10, !noundef !11
  %13 = trunc i8 %12 to i1
  %14 = xor i1 %13, true
  br label %15

15:                                               ; preds = %11, %1
  %16 = phi i1 [ false, %1 ], [ %14, %11 ]
  %17 = xor i1 %16, true
  %18 = xor i1 %17, true
  %19 = zext i1 %18 to i32
  %20 = sext i32 %19 to i64
  %21 = call i64 @llvm.expect.i64(i64 %20, i64 0)
  %22 = icmp ne i64 %21, 0
  br i1 %22, label %23, label %24

23:                                               ; preds = %15
  store i8 1, ptr @H5PB_init_g, align 1, !tbaa !8
  br label %24

24:                                               ; preds = %23, %15
  %25 = load i8, ptr @H5PB_init_g, align 1, !tbaa !8, !range !10, !noundef !11
  %26 = trunc i8 %25 to i1
  br i1 %26, label %31, label %27

27:                                               ; preds = %24
  %28 = load i8, ptr @H5_libterm_g, align 1, !tbaa !8, !range !10, !noundef !11
  %29 = trunc i8 %28 to i1
  %30 = xor i1 %29, true
  br label %31

31:                                               ; preds = %27, %24
  %32 = phi i1 [ true, %24 ], [ %30, %27 ]
  %33 = xor i1 %32, true
  %34 = xor i1 %33, true
  %35 = zext i1 %34 to i32
  %36 = sext i32 %35 to i64
  %37 = call i64 @llvm.expect.i64(i64 %36, i64 1)
  %38 = icmp ne i64 %37, 0
  br i1 %38, label %39, label %159

39:                                               ; preds = %31
  %40 = load ptr, ptr %3, align 8, !tbaa !16
  %41 = getelementptr inbounds nuw %struct.H5F_shared_t, ptr %40, i32 0, i32 15
  %42 = load ptr, ptr %41, align 8, !tbaa !54
  %43 = icmp ne ptr %42, null
  br i1 %43, label %44, label %157

44:                                               ; preds = %39
  call void @llvm.lifetime.start.p0(i64 8, ptr %6) #6
  %45 = load ptr, ptr %3, align 8, !tbaa !16
  %46 = getelementptr inbounds nuw %struct.H5F_shared_t, ptr %45, i32 0, i32 15
  %47 = load ptr, ptr %46, align 8, !tbaa !54
  store ptr %47, ptr %6, align 8, !tbaa !3
  call void @llvm.lifetime.start.p0(i64 16, ptr %7) #6
  %48 = load ptr, ptr %3, align 8, !tbaa !16
  %49 = call i32 @H5PB_flush(ptr noundef %48)
  %50 = icmp slt i32 %49, 0
  br i1 %50, label %51, label %70

51:                                               ; preds = %44
  br label %52

52:                                               ; preds = %51
  br label %53

53:                                               ; preds = %52
  br label %54

54:                                               ; preds = %53
  %55 = load i64, ptr @H5E_PAGEBUF_g, align 8, !tbaa !18
  %56 = load i64, ptr @H5E_CANTFLUSH_g, align 8, !tbaa !18
  %57 = call i32 (ptr, ptr, i32, i64, i64, ptr, ...) @H5E_printf_stack(ptr noundef @.str.10, ptr noundef @__func__.H5PB_dest, i32 noundef 464, i64 noundef %55, i64 noundef %56, ptr noundef @.str.17)
  br label %58

58:                                               ; preds = %54
  br label %59

59:                                               ; preds = %58
  store i8 1, ptr %5, align 1, !tbaa !8
  %60 = load i8, ptr %5, align 1, !tbaa !8, !range !10, !noundef !11
  %61 = trunc i8 %60 to i1
  %62 = zext i1 %61 to i8
  store i8 %62, ptr %5, align 1, !tbaa !8
  br label %63

63:                                               ; preds = %59
  br label %64

64:                                               ; preds = %63
  br label %65

65:                                               ; preds = %64
  store i32 -1, ptr %4, align 4, !tbaa !12
  store i32 10, ptr %8, align 4
  br label %154

66:                                               ; No predecessors!
  br label %67

67:                                               ; preds = %66
  br label %68

68:                                               ; preds = %67
  br label %69

69:                                               ; preds = %68
  br label %70

70:                                               ; preds = %69, %44
  %71 = load ptr, ptr %6, align 8, !tbaa !3
  %72 = getelementptr inbounds nuw %struct.H5PB_ud1_t, ptr %7, i32 0, i32 0
  store ptr %71, ptr %72, align 8, !tbaa !59
  %73 = getelementptr inbounds nuw %struct.H5PB_ud1_t, ptr %7, i32 0, i32 1
  store i8 1, ptr %73, align 8, !tbaa !61
  %74 = load ptr, ptr %6, align 8, !tbaa !3
  %75 = getelementptr inbounds nuw %struct.H5PB_t, ptr %74, i32 0, i32 8
  %76 = load ptr, ptr %75, align 8, !tbaa !51
  %77 = call i32 @H5SL_destroy(ptr noundef %76, ptr noundef @H5PB__dest_cb, ptr noundef %7)
  %78 = icmp ne i32 %77, 0
  br i1 %78, label %79, label %98

79:                                               ; preds = %70
  br label %80

80:                                               ; preds = %79
  br label %81

81:                                               ; preds = %80
  br label %82

82:                                               ; preds = %81
  %83 = load i64, ptr @H5E_PAGEBUF_g, align 8, !tbaa !18
  %84 = load i64, ptr @H5E_CANTCLOSEOBJ_g, align 8, !tbaa !18
  %85 = call i32 (ptr, ptr, i32, i64, i64, ptr, ...) @H5E_printf_stack(ptr noundef @.str.10, ptr noundef @__func__.H5PB_dest, i32 noundef 472, i64 noundef %83, i64 noundef %84, ptr noundef @.str.18)
  br label %86

86:                                               ; preds = %82
  br label %87

87:                                               ; preds = %86
  store i8 1, ptr %5, align 1, !tbaa !8
  %88 = load i8, ptr %5, align 1, !tbaa !8, !range !10, !noundef !11
  %89 = trunc i8 %88 to i1
  %90 = zext i1 %89 to i8
  store i8 %90, ptr %5, align 1, !tbaa !8
  br label %91

91:                                               ; preds = %87
  br label %92

92:                                               ; preds = %91
  br label %93

93:                                               ; preds = %92
  store i32 -1, ptr %4, align 4, !tbaa !12
  store i32 10, ptr %8, align 4
  br label %154

94:                                               ; No predecessors!
  br label %95

95:                                               ; preds = %94
  br label %96

96:                                               ; preds = %95
  br label %97

97:                                               ; preds = %96
  br label %98

98:                                               ; preds = %97, %70
  %99 = getelementptr inbounds nuw %struct.H5PB_ud1_t, ptr %7, i32 0, i32 1
  store i8 0, ptr %99, align 8, !tbaa !61
  %100 = load ptr, ptr %6, align 8, !tbaa !3
  %101 = getelementptr inbounds nuw %struct.H5PB_t, ptr %100, i32 0, i32 9
  %102 = load ptr, ptr %101, align 8, !tbaa !52
  %103 = call i32 @H5SL_destroy(ptr noundef %102, ptr noundef @H5PB__dest_cb, ptr noundef %7)
  %104 = icmp ne i32 %103, 0
  br i1 %104, label %105, label %124

105:                                              ; preds = %98
  br label %106

106:                                              ; preds = %105
  br label %107

107:                                              ; preds = %106
  br label %108

108:                                              ; preds = %107
  %109 = load i64, ptr @H5E_PAGEBUF_g, align 8, !tbaa !18
  %110 = load i64, ptr @H5E_CANTCLOSEOBJ_g, align 8, !tbaa !18
  %111 = call i32 (ptr, ptr, i32, i64, i64, ptr, ...) @H5E_printf_stack(ptr noundef @.str.10, ptr noundef @__func__.H5PB_dest, i32 noundef 477, i64 noundef %109, i64 noundef %110, ptr noundef @.str.18)
  br label %112

112:                                              ; preds = %108
  br label %113

113:                                              ; preds = %112
  store i8 1, ptr %5, align 1, !tbaa !8
  %114 = load i8, ptr %5, align 1, !tbaa !8, !range !10, !noundef !11
  %115 = trunc i8 %114 to i1
  %116 = zext i1 %115 to i8
  store i8 %116, ptr %5, align 1, !tbaa !8
  br label %117

117:                                              ; preds = %113
  br label %118

118:                                              ; preds = %117
  br label %119

119:                                              ; preds = %118
  store i32 -1, ptr %4, align 4, !tbaa !12
  store i32 10, ptr %8, align 4
  br label %154

120:                                              ; No predecessors!
  br label %121

121:                                              ; preds = %120
  br label %122

122:                                              ; preds = %121
  br label %123

123:                                              ; preds = %122
  br label %124

124:                                              ; preds = %123, %98
  %125 = load ptr, ptr %6, align 8, !tbaa !3
  %126 = getelementptr inbounds nuw %struct.H5PB_t, ptr %125, i32 0, i32 13
  %127 = load ptr, ptr %126, align 8, !tbaa !53
  %128 = call i32 @H5FL_fac_term(ptr noundef %127)
  %129 = icmp slt i32 %128, 0
  br i1 %129, label %130, label %149

130:                                              ; preds = %124
  br label %131

131:                                              ; preds = %130
  br label %132

132:                                              ; preds = %131
  br label %133

133:                                              ; preds = %132
  %134 = load i64, ptr @H5E_PAGEBUF_g, align 8, !tbaa !18
  %135 = load i64, ptr @H5E_CANTRELEASE_g, align 8, !tbaa !18
  %136 = call i32 (ptr, ptr, i32, i64, i64, ptr, ...) @H5E_printf_stack(ptr noundef @.str.10, ptr noundef @__func__.H5PB_dest, i32 noundef 481, i64 noundef %134, i64 noundef %135, ptr noundef @.str.19)
  br label %137

137:                                              ; preds = %133
  br label %138

138:                                              ; preds = %137
  store i8 1, ptr %5, align 1, !tbaa !8
  %139 = load i8, ptr %5, align 1, !tbaa !8, !range !10, !noundef !11
  %140 = trunc i8 %139 to i1
  %141 = zext i1 %140 to i8
  store i8 %141, ptr %5, align 1, !tbaa !8
  br label %142

142:                                              ; preds = %138
  br label %143

143:                                              ; preds = %142
  br label %144

144:                                              ; preds = %143
  store i32 -1, ptr %4, align 4, !tbaa !12
  store i32 10, ptr %8, align 4
  br label %154

145:                                              ; No predecessors!
  br label %146

146:                                              ; preds = %145
  br label %147

147:                                              ; preds = %146
  br label %148

148:                                              ; preds = %147
  br label %149

149:                                              ; preds = %148, %124
  %150 = load ptr, ptr %6, align 8, !tbaa !3
  %151 = call ptr @H5FL_reg_free(ptr noundef @H5_H5PB_t_reg_free_list, ptr noundef %150)
  %152 = load ptr, ptr %3, align 8, !tbaa !16
  %153 = getelementptr inbounds nuw %struct.H5F_shared_t, ptr %152, i32 0, i32 15
  store ptr %151, ptr %153, align 8, !tbaa !54
  store i32 0, ptr %8, align 4
  br label %154

154:                                              ; preds = %144, %119, %93, %65, %149
  call void @llvm.lifetime.end.p0(i64 16, ptr %7) #6
  call void @llvm.lifetime.end.p0(i64 8, ptr %6) #6
  %155 = load i32, ptr %8, align 4
  switch i32 %155, label %161 [
    i32 0, label %156
    i32 10, label %158
  ]

156:                                              ; preds = %154
  br label %157

157:                                              ; preds = %156, %39
  br label %158

158:                                              ; preds = %157, %154
  br label %159

159:                                              ; preds = %158, %31
  %160 = load i32, ptr %4, align 4, !tbaa !12
  store i32 %160, ptr %2, align 4
  store i32 1, ptr %8, align 4
  br label %161

161:                                              ; preds = %159, %154
  call void @llvm.lifetime.end.p0(i64 1, ptr %5) #6
  call void @llvm.lifetime.end.p0(i64 4, ptr %4) #6
  %162 = load i32, ptr %2, align 4
  ret i32 %162
}