; Function Attrs: nounwind uwtable
define range(i32 -1, 1) i32 @H5PB_dest(ptr noundef %0) local_unnamed_addr #4 {
  %2 = alloca %struct.H5PB_ud1_t, align 8
  %3 = load i8, ptr @H5PB_init_g, align 1, !tbaa !3, !range !7, !noundef !8
  %4 = trunc nuw i8 %3 to i1
  %5 = load i8, ptr @H5_libterm_g, align 1, !range !7
  %6 = trunc nuw i8 %5 to i1
  %7 = select i1 %4, i1 true, i1 %6
  br i1 %7, label %8, label %.thread, !prof !9

.thread:                                          ; preds = %1
  store i8 1, ptr @H5PB_init_g, align 1, !tbaa !3
  br label %11

8:                                                ; preds = %1
  %9 = xor i1 %6, true
  %10 = select i1 %4, i1 true, i1 %9
  br i1 %10, label %11, label %61, !prof !10

11:                                               ; preds = %.thread, %8
  %12 = phi i1 [ true, %.thread ], [ %4, %8 ]
  %13 = getelementptr inbounds nuw i8, ptr %0, i64 104
  %14 = load ptr, ptr %13, align 8, !tbaa !51
  %.not = icmp eq ptr %14, null
  br i1 %.not, label %61, label %15

15:                                               ; preds = %11
  call void @llvm.lifetime.start.p0(i64 16, ptr nonnull %2) #10
  %16 = select i1 %12, i1 true, i1 %6
  br i1 %16, label %17, label %.thread.i, !prof !9

.thread.i:                                        ; preds = %15
  store i8 1, ptr @H5PB_init_g, align 1, !tbaa !3
  br label %17

17:                                               ; preds = %.thread.i, %15
  %18 = tail call i32 @H5F_shared_get_intent(ptr noundef nonnull %0) #10
  %19 = and i32 %18, 1
  %.not10.i = icmp eq i32 %19, 0
  br i1 %.not10.i, label %32, label %20

20:                                               ; preds = %17
  %21 = load ptr, ptr %13, align 8, !tbaa !51
  %22 = getelementptr inbounds nuw i8, ptr %21, i64 40
  %23 = load ptr, ptr %22, align 8, !tbaa !48
  %24 = tail call i32 @H5SL_iterate(ptr noundef %23, ptr noundef nonnull @H5PB__flush_cb, ptr noundef nonnull %0) #10
  %.not11.i = icmp eq i32 %24, 0
  br i1 %.not11.i, label %32, label %25

25:                                               ; preds = %20
  %26 = load i64, ptr @H5E_PAGEBUF_g, align 8, !tbaa !37
  %27 = load i64, ptr @H5E_BADITER_g, align 8, !tbaa !37
  %28 = tail call i32 (ptr, ptr, i32, i64, i64, ptr, ...) @H5E_printf_stack(ptr noundef nonnull @.str.10, ptr noundef nonnull @__func__.H5PB_flush, i32 noundef 398, i64 noundef %26, i64 noundef %27, ptr noundef nonnull @.str.16) #10
  %29 = load i64, ptr @H5E_PAGEBUF_g, align 8, !tbaa !37
  %30 = load i64, ptr @H5E_CANTFLUSH_g, align 8, !tbaa !37
  %31 = tail call i32 (ptr, ptr, i32, i64, i64, ptr, ...) @H5E_printf_stack(ptr noundef nonnull @.str.10, ptr noundef nonnull @__func__.H5PB_dest, i32 noundef 464, i64 noundef %29, i64 noundef %30, ptr noundef nonnull @.str.17) #10
  br label %60

32:                                               ; preds = %17, %20
  store ptr %14, ptr %2, align 8, !tbaa !54
  %33 = getelementptr inbounds nuw i8, ptr %2, i64 8
  store i8 1, ptr %33, align 8, !tbaa !56
  %34 = getelementptr inbounds nuw i8, ptr %14, i64 40
  %35 = load ptr, ptr %34, align 8, !tbaa !48
  %36 = call i32 @H5SL_destroy(ptr noundef %35, ptr noundef nonnull @H5PB__dest_cb, ptr noundef nonnull %2) #10
  %.not18 = icmp eq i32 %36, 0
  br i1 %.not18, label %41, label %37

37:                                               ; preds = %32
  %38 = load i64, ptr @H5E_PAGEBUF_g, align 8, !tbaa !37
  %39 = load i64, ptr @H5E_CANTCLOSEOBJ_g, align 8, !tbaa !37
  %40 = call i32 (ptr, ptr, i32, i64, i64, ptr, ...) @H5E_printf_stack(ptr noundef nonnull @.str.10, ptr noundef nonnull @__func__.H5PB_dest, i32 noundef 472, i64 noundef %38, i64 noundef %39, ptr noundef nonnull @.str.18) #10
  br label %60

41:                                               ; preds = %32
  store i8 0, ptr %33, align 8, !tbaa !56
  %42 = getelementptr inbounds nuw i8, ptr %14, i64 48
  %43 = load ptr, ptr %42, align 8, !tbaa !49
  %44 = call i32 @H5SL_destroy(ptr noundef %43, ptr noundef nonnull @H5PB__dest_cb, ptr noundef nonnull %2) #10
  %.not19 = icmp eq i32 %44, 0
  br i1 %.not19, label %49, label %45

45:                                               ; preds = %41
  %46 = load i64, ptr @H5E_PAGEBUF_g, align 8, !tbaa !37
  %47 = load i64, ptr @H5E_CANTCLOSEOBJ_g, align 8, !tbaa !37
  %48 = call i32 (ptr, ptr, i32, i64, i64, ptr, ...) @H5E_printf_stack(ptr noundef nonnull @.str.10, ptr noundef nonnull @__func__.H5PB_dest, i32 noundef 477, i64 noundef %46, i64 noundef %47, ptr noundef nonnull @.str.18) #10
  br label %60

49:                                               ; preds = %41
  %50 = getelementptr inbounds nuw i8, ptr %14, i64 80
  %51 = load ptr, ptr %50, align 8, !tbaa !50
  %52 = call i32 @H5FL_fac_term(ptr noundef %51) #10
  %53 = icmp slt i32 %52, 0
  br i1 %53, label %54, label %58

54:                                               ; preds = %49
  %55 = load i64, ptr @H5E_PAGEBUF_g, align 8, !tbaa !37
  %56 = load i64, ptr @H5E_CANTRELEASE_g, align 8, !tbaa !37
  %57 = call i32 (ptr, ptr, i32, i64, i64, ptr, ...) @H5E_printf_stack(ptr noundef nonnull @.str.10, ptr noundef nonnull @__func__.H5PB_dest, i32 noundef 481, i64 noundef %55, i64 noundef %56, ptr noundef nonnull @.str.19) #10
  br label %60

58:                                               ; preds = %49
  %59 = call ptr @H5FL_reg_free(ptr noundef nonnull @H5_H5PB_t_reg_free_list, ptr noundef nonnull %14) #10
  store ptr %59, ptr %13, align 8, !tbaa !51
  br label %60

60:                                               ; preds = %58, %54, %45, %37, %25
  %.1 = phi i32 [ -1, %25 ], [ -1, %37 ], [ -1, %45 ], [ -1, %54 ], [ 0, %58 ]
  call void @llvm.lifetime.end.p0(i64 16, ptr nonnull %2) #10
  br label %61

61:                                               ; preds = %60, %8, %11
  %.015 = phi i32 [ %.1, %60 ], [ 0, %11 ], [ 0, %8 ]
  ret i32 %.015
}